#include <math.h>
#include <stdio.h>
#include <stdlib.h>
#include <string.h>

void main()
{
	int n,a,b,c,d,e;
	scanf("%d",&n);
	a=n/10000;
	b=(n-10000*a)/1000;
	c=(n-10000*a-1000*b)/100;
	d=(n-10000*a-1000*b-100*c)/10;
	e=(n-10000*a-1000*b-100*c-10*d)/1;
	if (a==0&&b!=0)
	printf("%d%d%d%d\n",e,d,c,b); 
	else if (b==0&&c!=0)
	printf("%d%d%d\n",e,d,c);
	else if (c==0&&d!=0)
	printf("%d%d\n",e,d);
	else if (d==0)
	printf("%d\n",e);
	else printf("%d%d%d%d%d\n",e,d,c,b,a); 
}